; Function Attrs: mustprogress nofree norecurse nosync nounwind willreturn memory(argmem: readwrite) uwtable
define hidden void @_glfwGetWindowFrameSizeWayland(ptr noundef readonly captures(none) %0, ptr noundef writeonly captures(address_is_null) %1, ptr noundef writeonly captures(address_is_null) %2, ptr noundef writeonly captures(address_is_null) %3, ptr noundef writeonly captures(address_is_null) %4) local_unnamed_addr #4 {
  %6 = getelementptr inbounds nuw i8, ptr %0, i64 1120
  %7 = load i32, ptr %6, align 8, !tbaa !162
  %.not = icmp eq i32 %7, 0
  br i1 %.not, label %16, label %8

8:                                                ; preds = %5
  %.not12 = icmp eq ptr %2, null
  br i1 %.not12, label %10, label %9

9:                                                ; preds = %8
  store i32 24, ptr %2, align 4, !tbaa !147
  br label %10

10:                                               ; preds = %9, %8
  %.not13 = icmp eq ptr %1, null
  br i1 %.not13, label %12, label %11

11:                                               ; preds = %10
  store i32 4, ptr %1, align 4, !tbaa !147
  br label %12

12:                                               ; preds = %11, %10
  %.not14 = icmp eq ptr %3, null
  br i1 %.not14, label %14, label %13

13:                                               ; preds = %12
  store i32 4, ptr %3, align 4, !tbaa !147
  br label %14

14:                                               ; preds = %13, %12
  %.not15 = icmp eq ptr %4, null
  br i1 %.not15, label %16, label %15

15:                                               ; preds = %14
  store i32 4, ptr %4, align 4, !tbaa !147
  br label %16

16:                                               ; preds = %14, %15, %5
  ret void
}